target datalayout = "e-m:e-p270:32:32-p271:32:32-p272:64:64-i64:64-i128:128-f80:128-n8:16:32:64-S128"
target triple = "x86_64-pc-linux-gnu"

%struct.struct_it8 = type { i32, i32, i32, [255 x %struct._Table], ptr, %struct._SubAllocator, i32, i32, i32, double, ptr, ptr, ptr, ptr, ptr, i32, [20 x ptr], i32, ptr, [128 x i8], ptr }
%struct._Table = type { [1024 x i8], i32, i32, i32, ptr, ptr, ptr }
%struct._SubAllocator = type { ptr, i32, i32 }

@.str.81 = private unnamed_addr constant [25 x i8] c"Table %d out of sequence\00", align 1
@.str.147 = private unnamed_addr constant [44 x i8] c"Patch %d out of range, there are %d patches\00", align 1
@.str.148 = private unnamed_addr constant [45 x i8] c"Sample %d out of range, there are %d samples\00", align 1

; Function Attrs: nounwind uwtable
define internal ptr @GetTable(ptr noundef %0) #0 {
  %2 = alloca ptr, align 8
  %3 = alloca ptr, align 8
  store ptr %0, ptr %3, align 8
  %4 = load ptr, ptr %3, align 8
  %5 = getelementptr inbounds %struct.struct_it8, ptr %4, i32 0, i32 1
  %6 = load i32, ptr %5, align 4
  %7 = load ptr, ptr %3, align 8
  %8 = getelementptr inbounds %struct.struct_it8, ptr %7, i32 0, i32 0
  %9 = load i32, ptr %8, align 8
  %10 = icmp uge i32 %6, %9
  br i1 %10, label %11, label %20

11:                                               ; preds = %1
  %12 = load ptr, ptr %3, align 8
  %13 = load ptr, ptr %3, align 8
  %14 = getelementptr inbounds %struct.struct_it8, ptr %13, i32 0, i32 1
  %15 = load i32, ptr %14, align 4
  %16 = call i32 (ptr, ptr, ...) @SynError(ptr noundef %12, ptr noundef @.str.81, i32 noundef %15)
  %17 = load ptr, ptr %3, align 8
  %18 = getelementptr inbounds %struct.struct_it8, ptr %17, i32 0, i32 3
  %19 = getelementptr inbounds [255 x %struct._Table], ptr %18, i64 0, i64 0
  store ptr %19, ptr %2, align 8
  br label %29

20:                                               ; preds = %1
  %21 = load ptr, ptr %3, align 8
  %22 = getelementptr inbounds %struct.struct_it8, ptr %21, i32 0, i32 3
  %23 = getelementptr inbounds [255 x %struct._Table], ptr %22, i64 0, i64 0
  %24 = load ptr, ptr %3, align 8
  %25 = getelementptr inbounds %struct.struct_it8, ptr %24, i32 0, i32 1
  %26 = load i32, ptr %25, align 4
  %27 = zext i32 %26 to i64
  %28 = getelementptr inbounds %struct._Table, ptr %23, i64 %27
  store ptr %28, ptr %2, align 8
  br label %29

29:                                               ; preds = %20, %11
  %30 = load ptr, ptr %2, align 8
  ret ptr %30
}

; Function Attrs: nounwind uwtable
define internal i32 @SetData(ptr noundef %0, i32 noundef %1, i32 noundef %2, ptr noundef %3) #0 {
  %5 = alloca i32, align 4
  %6 = alloca ptr, align 8
  %7 = alloca i32, align 4
  %8 = alloca i32, align 4
  %9 = alloca ptr, align 8
  %10 = alloca ptr, align 8
  store ptr %0, ptr %6, align 8
  store i32 %1, ptr %7, align 4
  store i32 %2, ptr %8, align 4
  store ptr %3, ptr %9, align 8
  %11 = load ptr, ptr %6, align 8
  %12 = call ptr @GetTable(ptr noundef %11)
  store ptr %12, ptr %10, align 8
  %13 = load ptr, ptr %10, align 8
  %14 = getelementptr inbounds %struct._Table, ptr %13, i32 0, i32 6
  %15 = load ptr, ptr %14, align 8
  %16 = icmp ne ptr %15, null
  br i1 %16, label %23, label %17

17:                                               ; preds = %4
  %18 = load ptr, ptr %6, align 8
  %19 = call i32 @AllocateDataSet(ptr noundef %18)
  %20 = icmp ne i32 %19, 0
  br i1 %20, label %22, label %21

21:                                               ; preds = %17
  store i32 0, ptr %5, align 4
  br label %77

22:                                               ; preds = %17
  br label %23

23:                                               ; preds = %22, %4
  %24 = load ptr, ptr %10, align 8
  %25 = getelementptr inbounds %struct._Table, ptr %24, i32 0, i32 6
  %26 = load ptr, ptr %25, align 8
  %27 = icmp ne ptr %26, null
  br i1 %27, label %29, label %28

28:                                               ; preds = %23
  store i32 0, ptr %5, align 4
  br label %77

29:                                               ; preds = %23
  %30 = load i32, ptr %7, align 4
  %31 = load ptr, ptr %10, align 8
  %32 = getelementptr inbounds %struct._Table, ptr %31, i32 0, i32 2
  %33 = load i32, ptr %32, align 4
  %34 = icmp sgt i32 %30, %33
  br i1 %34, label %38, label %35

35:                                               ; preds = %29
  %36 = load i32, ptr %7, align 4
  %37 = icmp slt i32 %36, 0
  br i1 %37, label %38, label %45

38:                                               ; preds = %35, %29
  %39 = load ptr, ptr %6, align 8
  %40 = load i32, ptr %7, align 4
  %41 = load ptr, ptr %10, align 8
  %42 = getelementptr inbounds %struct._Table, ptr %41, i32 0, i32 2
  %43 = load i32, ptr %42, align 4
  %44 = call i32 (ptr, ptr, ...) @SynError(ptr noundef %39, ptr noundef @.str.147, i32 noundef %40, i32 noundef %43)
  store i32 %44, ptr %5, align 4
  br label %77

45:                                               ; preds = %35
  %46 = load i32, ptr %8, align 4
  %47 = load ptr, ptr %10, align 8
  %48 = getelementptr inbounds %struct._Table, ptr %47, i32 0, i32 1
  %49 = load i32, ptr %48, align 8
  %50 = icmp sgt i32 %46, %49
  br i1 %50, label %54, label %51

51:                                               ; preds = %45
  %52 = load i32, ptr %8, align 4
  %53 = icmp slt i32 %52, 0
  br i1 %53, label %54, label %61

54:                                               ; preds = %51, %45
  %55 = load ptr, ptr %6, align 8
  %56 = load i32, ptr %8, align 4
  %57 = load ptr, ptr %10, align 8
  %58 = getelementptr inbounds %struct._Table, ptr %57, i32 0, i32 1
  %59 = load i32, ptr %58, align 8
  %60 = call i32 (ptr, ptr, ...) @SynError(ptr noundef %55, ptr noundef @.str.148, i32 noundef %56, i32 noundef %59)
  store i32 %60, ptr %5, align 4
  br label %77

61:                                               ; preds = %51
  %62 = load ptr, ptr %6, align 8
  %63 = load ptr, ptr %9, align 8
  %64 = call ptr @AllocString(ptr noundef %62, ptr noundef %63)
  %65 = load ptr, ptr %10, align 8
  %66 = getelementptr inbounds %struct._Table, ptr %65, i32 0, i32 6
  %67 = load ptr, ptr %66, align 8
  %68 = load i32, ptr %7, align 4
  %69 = load ptr, ptr %10, align 8
  %70 = getelementptr inbounds %struct._Table, ptr %69, i32 0, i32 1
  %71 = load i32, ptr %70, align 8
  %72 = mul nsw i32 %68, %71
  %73 = load i32, ptr %8, align 4
  %74 = add nsw i32 %72, %73
  %75 = sext i32 %74 to i64
  %76 = getelementptr inbounds ptr, ptr %67, i64 %75
  store ptr %64, ptr %76, align 8
  store i32 1, ptr %5, align 4
  br label %77

77:                                               ; preds = %61, %54, %38, %28, %21
  %78 = load i32, ptr %5, align 4
  ret i32 %78
}