; Function Attrs: nounwind uwtable
define internal fastcc range(i32 0, 2) i32 @SetData(ptr nocapture noundef %0, i32 noundef %1, i32 noundef %2, ptr nocapture noundef readonly %3) unnamed_addr #0 {
  %5 = getelementptr inbounds i8, ptr %0, i64 4
  %6 = load i32, ptr %5, align 4
  %7 = load i32, ptr %0, align 8
  %.not.i = icmp ult i32 %6, %7
  br i1 %.not.i, label %10, label %8

8:                                                ; preds = %4
  tail call void (ptr, ptr, ...) @SynError(ptr noundef nonnull %0, ptr noundef nonnull @.str.81, i32 noundef %6)
  %9 = getelementptr inbounds i8, ptr %0, i64 16
  br label %GetTable.exit

10:                                               ; preds = %4
  %11 = getelementptr inbounds i8, ptr %0, i64 16
  %12 = zext i32 %6 to i64
  %13 = getelementptr inbounds %struct._Table, ptr %11, i64 %12
  br label %GetTable.exit

GetTable.exit:                                    ; preds = %8, %10
  %.0.i = phi ptr [ %9, %8 ], [ %13, %10 ]
  %14 = getelementptr inbounds i8, ptr %.0.i, i64 1056
  %15 = load ptr, ptr %14, align 8
  %.not = icmp eq ptr %15, null
  br i1 %.not, label %16, label %.thread

16:                                               ; preds = %GetTable.exit
  %17 = tail call fastcc i32 @AllocateDataSet(ptr noundef nonnull %0)
  %.not27 = icmp eq i32 %17, 0
  br i1 %.not27, label %38, label %18

18:                                               ; preds = %16
  %.pr = load ptr, ptr %14, align 8
  %.not28 = icmp eq ptr %.pr, null
  br i1 %.not28, label %38, label %.thread

.thread:                                          ; preds = %GetTable.exit, %18
  %19 = getelementptr inbounds i8, ptr %.0.i, i64 1028
  %20 = load i32, ptr %19, align 4
  %21 = icmp slt i32 %20, %1
  %22 = icmp slt i32 %1, 0
  %or.cond = or i1 %22, %21
  br i1 %or.cond, label %23, label %24

23:                                               ; preds = %.thread
  tail call void (ptr, ptr, ...) @SynError(ptr noundef nonnull %0, ptr noundef nonnull @.str.147, i32 noundef %1, i32 noundef %20)
  br label %38

24:                                               ; preds = %.thread
  %25 = getelementptr inbounds i8, ptr %.0.i, i64 1024
  %26 = load i32, ptr %25, align 8
  %27 = icmp slt i32 %26, %2
  %28 = icmp slt i32 %2, 0
  %or.cond3 = or i1 %28, %27
  br i1 %or.cond3, label %29, label %30

29:                                               ; preds = %24
  tail call void (ptr, ptr, ...) @SynError(ptr noundef nonnull %0, ptr noundef nonnull @.str.148, i32 noundef %2, i32 noundef %26)
  br label %38

30:                                               ; preds = %24
  %31 = tail call fastcc ptr @AllocString(ptr noundef nonnull %0, ptr noundef %3)
  %32 = load ptr, ptr %14, align 8
  %33 = load i32, ptr %25, align 8
  %34 = mul nsw i32 %33, %1
  %35 = add nsw i32 %34, %2
  %36 = sext i32 %35 to i64
  %37 = getelementptr inbounds ptr, ptr %32, i64 %36
  store ptr %31, ptr %37, align 8
  br label %38

38:                                               ; preds = %18, %16, %30, %29, %23
  %.0 = phi i32 [ 0, %23 ], [ 0, %29 ], [ 1, %30 ], [ 0, %16 ], [ 0, %18 ]
  ret i32 %.0
}